Certificate:
    Data:
        Version: 3 (0x2)
        Serial Number: 6 (0x6)
    Signature Algorithm: sha256WithRSAEncryption
        Issuer: DC=org, DC=openmtc, O=OpenMTC, OU=OpenMTC Signing CA, CN=OpenMTC Signing CA
        Validity
            Not Before: Apr 13 18:30:31 2019 GMT
            Not After : Apr 12 18:30:31 2021 GMT
        Subject: DC=org, DC=openmtc, DC=openmtc, O=OpenMTC, OU=IoT, CN=api.openmtc.org
        Subject Public Key Info:
            Public Key Algorithm: rsaEncryption
                Public-Key: (2048 bit)
                Modulus:
                    00:96:52:8f:2f:8c:e7:78:d8:0f:5c:0a:6e:dd:e9:
                    14:fc:a7:05:9a:02:ea:6d:3e:33:72:bb:b0:7a:ae:
                    24:12:a4:3e:a6:fd:1e:c5:91:a8:f0:0e:d3:b1:01:
                    01:06:cd:21:fe:55:41:b3:a8:8d:95:3b:e4:a5:e4:
                    ba:f4:8e:41:e7:21:c7:ca:9e:2a:27:f1:6f:11:22:
                    0e:6e:b1:7f:da:38:62:1a:06:3c:78:5f:bd:2b:8b:
                    40:00:f5:75:0f:76:96:50:09:7d:26:4c:9a:92:dc:
                    32:b3:c1:4b:42:00:b9:a0:77:3a:81:85:35:57:e9:
                    ef:b3:d8:db:a1:c4:73:56:86:ee:0e:43:c7:e7:a9:
                    15:5e:47:8e:0c:b3:b4:30:1a:11:28:2c:79:ca:83:
                    e4:0d:43:10:a5:7c:41:5c:b8:9f:f6:98:78:3b:ee:
                    03:36:59:b4:ee:b6:3e:4e:8a:05:ba:4e:aa:96:cf:
                    da:af:02:45:86:2e:64:f6:18:03:16:40:71:72:22:
                    22:cc:35:65:11:ee:47:93:bb:36:35:8a:8f:9d:1a:
                    7c:63:60:df:ee:bc:b4:e7:3b:17:c7:c6:99:b9:01:
                    c1:7d:83:1f:c1:13:04:a8:ed:0e:5f:75:88:bd:c8:
                    25:85:69:0a:e5:19:73:47:4e:61:90:10:9f:92:da:
                    b4:89
                Exponent: 65537 (0x10001)
        X509v3 extensions:
            X509v3 Key Usage: critical
                Digital Signature, Key Encipherment
            X509v3 Basic Constraints: 
                CA:FALSE
            X509v3 Extended Key Usage: 
                TLS Web Server Authentication, TLS Web Client Authentication
            X509v3 Subject Key Identifier: 
                E7:E1:9E:94:27:E1:51:C7:89:89:FD:75:5D:88:DF:24:47:32:DD:8A
            X509v3 Authority Key Identifier: 
                keyid:2E:9F:9F:AF:EF:0F:6A:E4:8B:E7:7B:9E:0C:DD:F9:21:87:65:5D:0F

            X509v3 Subject Alternative Name: 
                DNS:api.openmtc.org
    Signature Algorithm: sha256WithRSAEncryption
         ac:50:c1:20:ab:98:53:86:66:92:ec:aa:84:30:3f:4b:e9:5a:
         0e:cf:16:ac:4e:e6:5f:a6:b1:97:67:f2:8e:fc:bf:ec:0b:40:
         9e:f5:bc:6e:e8:94:f5:86:c7:7b:66:27:74:4d:56:f7:36:b6:
         e0:9e:e1:1a:b5:72:fd:81:a7:44:f1:9c:00:66:42:e4:a7:71:
         f8:1e:c0:df:de:32:80:30:4f:60:61:ae:24:f5:0b:05:f1:35:
         60:07:f9:30:d3:56:64:26:5b:2d:78:4f:ca:a5:fb:19:48:3b:
         3e:20:f5:cc:4e:22:4b:dc:d8:62:77:01:b9:88:9c:a0:71:5f:
         3b:53:a4:f2:92:4c:e8:c0:38:8d:f3:80:aa:88:cd:09:26:0f:
         09:79:77:55:e7:e5:83:10:fb:fc:07:01:5a:84:ad:6c:05:dc:
         2e:7f:6c:1d:ec:88:eb:ea:ff:8f:90:58:b0:dc:ab:ad:43:6c:
         36:29:a6:d9:43:95:88:ae:72:f7:96:ed:fc:36:14:a3:e7:a5:
         89:3c:2a:a7:45:8a:2b:57:fb:32:38:2f:13:1c:e5:b8:92:7e:
         2b:b5:f2:32:e5:23:8f:f0:df:86:70:3c:fe:ff:b4:95:61:af:
         97:79:14:db:86:87:ba:27:e4:09:57:53:80:bd:e3:9f:a5:c7:
         13:2e:87:b3
-----BEGIN CERTIFICATE-----
MIIEETCCAvmgAwIBAgIBBjANBgkqhkiG9w0BAQsFADB6MRMwEQYKCZImiZPyLGQB
GRYDb3JnMRcwFQYKCZImiZPyLGQBGRYHb3Blbm10YzEQMA4GA1UECgwHT3Blbk1U
QzEbMBkGA1UECwwST3Blbk1UQyBTaWduaW5nIENBMRswGQYDVQQDDBJPcGVuTVRD
IFNpZ25pbmcgQ0EwHhcNMTkwNDEzMTgzMDMxWhcNMjEwNDEyMTgzMDMxWjCBgTET
MBEGCgmSJomT8ixkARkWA29yZzEXMBUGCgmSJomT8ixkARkWB29wZW5tdGMxFzAV
BgoJkiaJk/IsZAEZFgdvcGVubXRjMRAwDgYDVQQKDAdPcGVuTVRDMQwwCgYDVQQL
DANJb1QxGDAWBgNVBAMMD2FwaS5vcGVubXRjLm9yZzCCASIwDQYJKoZIhvcNAQEB
BQADggEPADCCAQoCggEBAJZSjy+M53jYD1wKbt3pFPynBZoC6m0+M3K7sHquJBKk
Pqb9HsWRqPAO07EBAQbNIf5VQbOojZU75KXkuvSOQechx8qeKifxbxEiDm6xf9o4
YhoGPHhfvSuLQAD1dQ92llAJfSZMmpLcMrPBS0IAuaB3OoGFNVfp77PY26HEc1aG
7g5Dx+epFV5HjgyztDAaESgsecqD5A1DEKV8QVy4n/aYeDvuAzZZtO62Pk6KBbpO
qpbP2q8CRYYuZPYYAxZAcXIiIsw1ZRHuR5O7NjWKj50afGNg3+68tOc7F8fGmbkB
wX2DH8ETBKjtDl91iL3IJYVpCuUZc0dOYZAQn5LatIkCAwEAAaOBmTCBljAOBgNV
HQ8BAf8EBAMCBaAwCQYDVR0TBAIwADAdBgNVHSUEFjAUBggrBgEFBQcDAQYIKwYB
BQUHAwIwHQYDVR0OBBYEFOfhnpQn4VHHiYn9dV2I3yRHMt2KMB8GA1UdIwQYMBaA
FC6fn6/vD2rki+d7ngzd+SGHZV0PMBoGA1UdEQQTMBGCD2FwaS5vcGVubXRjLm9y
ZzANBgkqhkiG9w0BAQsFAAOCAQEArFDBIKuYU4ZmkuyqhDA/S+laDs8WrE7mX6ax
l2fyjvy/7AtAnvW8buiU9YbHe2YndE1W9za24J7hGrVy/YGnRPGcAGZC5Kdx+B7A
394ygDBPYGGuJPULBfE1YAf5MNNWZCZbLXhPyqX7GUg7PiD1zE4iS9zYYncBuYic
oHFfO1Ok8pJM6MA4jfOAqojNCSYPCXl3VeflgxD7/AcBWoStbAXcLn9sHeyI6+r/
j5BYsNyrrUNsNimm2UOViK5y95bt/DYUo+eliTwqp0WKK1f7MjgvExzluJJ+K7Xy
MuUjj/DfhnA8/v+0lWGvl3kU24aHuifkCVdTgL3jn6XHEy6Hsw==
-----END CERTIFICATE-----
