Certificate:
    Data:
        Version: 3 (0x2)
        Serial Number: 10 (0xa)
    Signature Algorithm: sha256WithRSAEncryption
        Issuer: DC=org, DC=openmtc, O=OpenMTC, OU=OpenMTC Root CA, CN=OpenMTC Root CA
        Validity
            Not Before: Apr 13 17:23:37 2019 GMT
            Not After : Apr 12 17:23:37 2029 GMT
        Subject: DC=org, DC=openmtc, O=OpenMTC, OU=OpenMTC Signing CA, CN=OpenMTC Signing CA
        Subject Public Key Info:
            Public Key Algorithm: rsaEncryption
                Public-Key: (2048 bit)
                Modulus:
                    00:e0:b9:f7:6a:bd:df:d0:91:88:7e:47:bc:a5:9a:
                    0e:3f:46:77:1a:a0:97:df:31:3b:ca:b5:ee:79:9c:
                    83:ff:9c:ed:fd:d2:4a:46:0d:8b:d9:40:dd:bf:c3:
                    1a:4b:c8:31:2c:9d:4a:72:63:05:32:f1:5b:75:6f:
                    21:dc:8b:a1:f3:c8:07:bf:8f:fb:a9:29:8f:44:4b:
                    df:bb:85:e5:53:b6:df:de:b4:a3:a3:bc:70:db:bc:
                    4b:8c:c5:a1:b0:15:8d:8f:33:a4:56:48:13:cd:b9:
                    12:30:00:ef:c3:c3:98:6f:c0:35:8a:dd:b7:da:67:
                    66:eb:70:d0:b3:3f:3b:fb:94:1d:3e:d2:c7:d6:a8:
                    21:de:c9:3a:fe:9f:de:ff:6f:df:45:8d:bd:3b:b4:
                    d7:d0:8b:d3:f4:ad:87:4e:f9:d1:dc:d9:55:d4:df:
                    e9:e0:a8:2b:82:6e:2f:94:0a:8a:68:c5:59:37:a5:
                    3d:16:9e:87:c3:94:c3:26:60:a4:d4:15:ea:13:e7:
                    65:08:ec:95:d2:f7:b1:1b:35:05:26:9b:ea:63:0d:
                    60:25:10:01:4a:a0:a0:20:61:8d:be:e2:1f:af:83:
                    24:e4:4f:66:5e:60:d5:b9:e1:32:95:22:30:7d:91:
                    f5:1d:6d:e9:84:b7:bd:4b:04:7e:d6:79:19:e8:ba:
                    2c:ed
                Exponent: 65537 (0x10001)
        X509v3 extensions:
            X509v3 Key Usage: critical
                Certificate Sign, CRL Sign
            X509v3 Basic Constraints: critical
                CA:TRUE, pathlen:0
            X509v3 Subject Key Identifier: 
                2E:9F:9F:AF:EF:0F:6A:E4:8B:E7:7B:9E:0C:DD:F9:21:87:65:5D:0F
            X509v3 Authority Key Identifier: 
                keyid:2D:40:17:FE:67:68:74:8A:10:33:EA:17:3D:86:9A:A2:E3:47:DF:62

    Signature Algorithm: sha256WithRSAEncryption
         96:06:ae:23:71:bc:de:ca:82:06:94:3c:23:d9:a2:2c:67:b4:
         47:ec:f6:0e:f6:7f:cd:36:16:0b:b7:c6:70:c2:51:65:4c:65:
         07:46:19:bf:4f:27:95:ec:4a:df:00:cc:f1:7f:72:1d:45:6e:
         19:8b:f5:0d:6a:d7:f1:58:7e:c1:74:ea:2a:d7:3b:df:ad:55:
         57:6a:6f:f2:41:47:9d:3b:d9:87:9b:5f:93:c6:2c:9a:e5:45:
         8a:d3:8d:b9:69:cf:5e:a3:6b:2b:33:58:e4:51:37:f0:1a:7e:
         d4:f6:ed:42:58:f8:89:39:af:10:ef:24:b2:85:6c:97:c5:e3:
         5d:4c:8d:53:46:55:1c:f9:0c:18:2f:48:3b:62:07:ca:65:f5:
         bf:af:90:b2:39:b4:c8:a6:25:b7:b4:fa:a5:17:ff:01:5f:c8:
         c1:79:20:d6:d7:4a:03:27:a8:a0:65:c8:db:01:e5:9b:45:14:
         cd:c7:af:2a:30:a3:ae:f8:a7:e8:8a:6a:c4:37:a4:a4:60:0d:
         ca:7c:4b:f4:20:d0:b1:cd:87:d9:42:f4:fe:92:2e:01:09:35:
         bf:83:79:81:66:a4:78:c4:f9:0a:1a:52:48:ff:79:b1:8f:04:
         bb:06:2c:9b:10:06:2c:3a:78:09:63:ea:0e:c1:26:e9:7b:28:
         c8:55:1b:54
-----BEGIN CERTIFICATE-----
MIIDzzCCAregAwIBAgIBCjANBgkqhkiG9w0BAQsFADB0MRMwEQYKCZImiZPyLGQB
GRYDb3JnMRcwFQYKCZImiZPyLGQBGRYHb3Blbm10YzEQMA4GA1UECgwHT3Blbk1U
QzEYMBYGA1UECwwPT3Blbk1UQyBSb290IENBMRgwFgYDVQQDDA9PcGVuTVRDIFJv
b3QgQ0EwHhcNMTkwNDEzMTcyMzM3WhcNMjkwNDEyMTcyMzM3WjB6MRMwEQYKCZIm
iZPyLGQBGRYDb3JnMRcwFQYKCZImiZPyLGQBGRYHb3Blbm10YzEQMA4GA1UECgwH
T3Blbk1UQzEbMBkGA1UECwwST3Blbk1UQyBTaWduaW5nIENBMRswGQYDVQQDDBJP
cGVuTVRDIFNpZ25pbmcgQ0EwggEiMA0GCSqGSIb3DQEBAQUAA4IBDwAwggEKAoIB
AQDgufdqvd/QkYh+R7ylmg4/RncaoJffMTvKte55nIP/nO390kpGDYvZQN2/wxpL
yDEsnUpyYwUy8Vt1byHci6HzyAe/j/upKY9ES9+7heVTtt/etKOjvHDbvEuMxaGw
FY2PM6RWSBPNuRIwAO/Dw5hvwDWK3bfaZ2brcNCzPzv7lB0+0sfWqCHeyTr+n97/
b99Fjb07tNfQi9P0rYdO+dHc2VXU3+ngqCuCbi+UCopoxVk3pT0WnofDlMMmYKTU
FeoT52UI7JXS97EbNQUmm+pjDWAlEAFKoKAgYY2+4h+vgyTkT2ZeYNW54TKVIjB9
kfUdbemEt71LBH7WeRnouiztAgMBAAGjZjBkMA4GA1UdDwEB/wQEAwIBBjASBgNV
HRMBAf8ECDAGAQH/AgEAMB0GA1UdDgQWBBQun5+v7w9q5Ivne54M3fkhh2VdDzAf
BgNVHSMEGDAWgBQtQBf+Z2h0ihAz6hc9hpqi40ffYjANBgkqhkiG9w0BAQsFAAOC
AQEAlgauI3G83sqCBpQ8I9miLGe0R+z2DvZ/zTYWC7fGcMJRZUxlB0YZv08nlexK
3wDM8X9yHUVuGYv1DWrX8Vh+wXTqKtc7361VV2pv8kFHnTvZh5tfk8YsmuVFitON
uWnPXqNrKzNY5FE38Bp+1PbtQlj4iTmvEO8ksoVsl8XjXUyNU0ZVHPkMGC9IO2IH
ymX1v6+Qsjm0yKYlt7T6pRf/AV/IwXkg1tdKAyeooGXI2wHlm0UUzcevKjCjrvin
6IpqxDekpGANynxL9CDQsc2H2UL0/pIuAQk1v4N5gWakeMT5ChpSSP95sY8EuwYs
mxAGLDp4CWPqDsEm6XsoyFUbVA==
-----END CERTIFICATE-----
Certificate:
    Data:
        Version: 3 (0x2)
        Serial Number: 9 (0x9)
    Signature Algorithm: sha256WithRSAEncryption
        Issuer: DC=org, DC=openmtc, O=OpenMTC, OU=OpenMTC Root CA, CN=OpenMTC Root CA
        Validity
            Not Before: Apr 13 17:22:44 2019 GMT
            Not After : Apr 12 17:22:44 2029 GMT
        Subject: DC=org, DC=openmtc, O=OpenMTC, OU=OpenMTC Root CA, CN=OpenMTC Root CA
        Subject Public Key Info:
            Public Key Algorithm: rsaEncryption
                Public-Key: (2048 bit)
                Modulus:
                    00:c0:ce:46:37:d1:3f:66:b3:fe:33:3d:ba:e0:c9:
                    b9:93:3f:40:53:09:c1:7c:9a:12:db:75:fb:92:65:
                    8e:05:97:69:5a:7e:49:09:ad:f8:3c:9b:0d:b8:8a:
                    3b:8c:80:90:1a:38:27:b8:4e:78:f7:b5:6c:42:b8:
                    73:c8:82:c6:bb:92:62:0d:dd:12:94:00:1d:52:05:
                    d5:d9:fe:eb:6a:4e:a0:3f:0c:97:ea:89:10:2c:fa:
                    82:32:db:7d:f9:cf:b1:a1:fe:1d:5f:e2:8e:a4:50:
                    4a:ec:f0:b3:3d:62:d0:fa:de:77:d3:a0:44:70:d1:
                    ff:8a:70:73:5e:0b:82:ed:ac:c9:d7:89:5b:21:ca:
                    bd:3b:7a:a6:bd:ff:08:e0:b1:c3:ff:1a:3a:a0:8c:
                    86:3d:d3:5e:61:23:f8:32:c7:5d:4e:2d:d1:18:d1:
                    79:87:1e:71:2b:f3:e3:05:67:ea:c4:29:10:7d:20:
                    b4:06:23:ca:d2:5f:b8:9e:3d:4e:43:a3:27:48:d2:
                    79:0e:44:89:0e:54:c2:ff:1d:49:fb:ad:cb:ae:fa:
                    65:4f:10:4f:66:10:aa:a1:99:89:34:98:60:27:b3:
                    b7:39:12:08:3c:c1:4b:c5:63:45:bf:d3:d1:e1:ea:
                    5f:9a:46:66:5a:fe:5c:97:0d:ef:42:53:c0:1c:1a:
                    ba:db
                Exponent: 65537 (0x10001)
        X509v3 extensions:
            X509v3 Key Usage: critical
                Certificate Sign, CRL Sign
            X509v3 Basic Constraints: critical
                CA:TRUE
            X509v3 Subject Key Identifier: 
                2D:40:17:FE:67:68:74:8A:10:33:EA:17:3D:86:9A:A2:E3:47:DF:62
            X509v3 Authority Key Identifier: 
                keyid:2D:40:17:FE:67:68:74:8A:10:33:EA:17:3D:86:9A:A2:E3:47:DF:62

    Signature Algorithm: sha256WithRSAEncryption
         9a:d3:d2:88:c3:08:e2:31:06:8d:5b:3a:de:09:d2:07:e6:2c:
         f1:58:ed:a5:99:4f:3a:c5:c0:83:f8:b6:fe:92:f6:0c:8f:cb:
         67:5c:86:7c:3d:9a:a7:df:62:ea:1e:98:4a:c1:ca:9d:fb:d2:
         94:e8:22:55:b3:79:98:41:e4:93:e5:2b:1a:67:ef:14:40:d2:
         3b:4f:a5:3c:7d:32:c6:6d:bf:4c:7c:60:58:43:9e:e3:00:5e:
         0d:4f:b2:c1:9d:10:3a:a9:10:13:e4:cb:58:f1:a6:13:54:f7:
         33:c8:fc:4f:24:57:d0:45:39:7f:55:49:74:c1:c6:ed:b3:23:
         5f:a4:30:02:c5:44:f4:75:7b:ae:ab:f4:a1:a5:74:b1:ec:46:
         aa:ea:b7:86:c7:a1:d4:20:53:d8:d3:db:f9:58:de:11:99:21:
         47:2d:61:be:62:f7:b8:df:fb:d6:c9:d6:9b:d1:7b:1e:8d:ef:
         8c:30:f8:9d:cc:b3:14:e4:0e:25:19:d1:ab:e9:27:c1:c5:93:
         cc:e9:ec:7d:77:07:04:02:1f:39:cc:c2:7a:82:81:63:b4:13:
         c1:c6:d3:2a:ea:9e:09:f9:ca:63:d3:6a:98:2b:89:e4:d9:34:
         43:66:08:98:b3:2f:b6:fb:8d:7f:30:a9:0d:fd:b7:8f:8f:79:
         9e:62:e1:0f
-----BEGIN CERTIFICATE-----
MIIDxjCCAq6gAwIBAgIBCTANBgkqhkiG9w0BAQsFADB0MRMwEQYKCZImiZPyLGQB
GRYDb3JnMRcwFQYKCZImiZPyLGQBGRYHb3Blbm10YzEQMA4GA1UECgwHT3Blbk1U
QzEYMBYGA1UECwwPT3Blbk1UQyBSb290IENBMRgwFgYDVQQDDA9PcGVuTVRDIFJv
b3QgQ0EwHhcNMTkwNDEzMTcyMjQ0WhcNMjkwNDEyMTcyMjQ0WjB0MRMwEQYKCZIm
iZPyLGQBGRYDb3JnMRcwFQYKCZImiZPyLGQBGRYHb3Blbm10YzEQMA4GA1UECgwH
T3Blbk1UQzEYMBYGA1UECwwPT3Blbk1UQyBSb290IENBMRgwFgYDVQQDDA9PcGVu
TVRDIFJvb3QgQ0EwggEiMA0GCSqGSIb3DQEBAQUAA4IBDwAwggEKAoIBAQDAzkY3
0T9ms/4zPbrgybmTP0BTCcF8mhLbdfuSZY4Fl2lafkkJrfg8mw24ijuMgJAaOCe4
Tnj3tWxCuHPIgsa7kmIN3RKUAB1SBdXZ/utqTqA/DJfqiRAs+oIy2335z7Gh/h1f
4o6kUErs8LM9YtD63nfToERw0f+KcHNeC4LtrMnXiVshyr07eqa9/wjgscP/Gjqg
jIY9015hI/gyx11OLdEY0XmHHnEr8+MFZ+rEKRB9ILQGI8rSX7iePU5DoydI0nkO
RIkOVML/HUn7rcuu+mVPEE9mEKqhmYk0mGAns7c5Egg8wUvFY0W/09Hh6l+aRmZa
/lyXDe9CU8AcGrrbAgMBAAGjYzBhMA4GA1UdDwEB/wQEAwIBBjAPBgNVHRMBAf8E
BTADAQH/MB0GA1UdDgQWBBQtQBf+Z2h0ihAz6hc9hpqi40ffYjAfBgNVHSMEGDAW
gBQtQBf+Z2h0ihAz6hc9hpqi40ffYjANBgkqhkiG9w0BAQsFAAOCAQEAmtPSiMMI
4jEGjVs63gnSB+Ys8VjtpZlPOsXAg/i2/pL2DI/LZ1yGfD2ap99i6h6YSsHKnfvS
lOgiVbN5mEHkk+UrGmfvFEDSO0+lPH0yxm2/THxgWEOe4wBeDU+ywZ0QOqkQE+TL
WPGmE1T3M8j8TyRX0EU5f1VJdMHG7bMjX6QwAsVE9HV7rqv0oaV0sexGquq3hseh
1CBT2NPb+VjeEZkhRy1hvmL3uN/71snWm9F7Ho3vjDD4ncyzFOQOJRnRq+knwcWT
zOnsfXcHBAIfOczCeoKBY7QTwcbTKuqeCfnKY9NqmCuJ5Nk0Q2YImLMvtvuNfzCp
Df23j495nmLhDw==
-----END CERTIFICATE-----
