Certificate:
    Data:
        Version: 3 (0x2)
        Serial Number: 5 (0x5)
    Signature Algorithm: sha256WithRSAEncryption
        Issuer: DC=org, DC=openmtc, O=OpenMTC, OU=OpenMTC Signing CA, CN=OpenMTC Signing CA
        Validity
            Not Before: Apr 13 18:16:30 2019 GMT
            Not After : Apr 12 18:16:30 2021 GMT
        Subject: DC=org, DC=openmtc, DC=openmtc, O=OpenMTC, OU=IoT, CN=console.openmtc.org
        Subject Public Key Info:
            Public Key Algorithm: rsaEncryption
                Public-Key: (2048 bit)
                Modulus:
                    00:c5:22:a5:70:7a:20:db:46:04:57:c3:c0:dc:f3:
                    e9:dd:9b:8c:43:7f:69:b0:e2:ed:81:a5:99:6e:80:
                    0c:58:b1:dc:a4:c2:ee:b7:0d:f5:a8:85:f1:c1:85:
                    55:81:07:11:a8:d5:7b:db:85:fd:85:cb:16:3e:17:
                    54:71:5e:37:d6:3d:6e:56:6e:93:8e:7d:f5:49:12:
                    af:b8:32:46:3c:79:be:24:35:8b:70:c1:c6:61:b6:
                    97:18:76:3b:4c:f4:44:aa:a5:b2:ba:fe:e5:3b:e1:
                    89:f2:fd:b5:f4:e5:07:d4:6b:9b:50:9d:60:b1:89:
                    cd:96:b0:56:ab:2e:63:81:5e:4f:6d:a3:87:63:40:
                    73:3d:70:64:8e:8d:a1:55:40:6d:69:59:04:f9:c7:
                    33:b2:f3:6c:ac:a7:b5:f8:de:45:d7:48:37:d2:30:
                    0c:6a:2e:75:3f:d4:be:50:d3:de:44:d8:38:3c:7e:
                    1f:37:c5:76:36:2b:e8:5a:b0:96:1b:05:9e:24:b0:
                    4d:a2:25:43:cf:4a:e4:2b:7a:c1:76:43:08:c2:ba:
                    c3:b9:09:a7:42:49:39:a4:3d:cb:f7:91:69:69:17:
                    c7:19:0a:2e:0c:a7:ef:20:7a:51:7f:81:3d:08:cd:
                    06:19:9a:22:a1:7f:4d:5d:e4:eb:d3:0a:cf:db:e3:
                    a1:a9
                Exponent: 65537 (0x10001)
        X509v3 extensions:
            X509v3 Key Usage: critical
                Digital Signature, Key Encipherment
            X509v3 Basic Constraints: 
                CA:FALSE
            X509v3 Extended Key Usage: 
                TLS Web Server Authentication, TLS Web Client Authentication
            X509v3 Subject Key Identifier: 
                BC:80:38:5B:F8:A6:84:E8:99:19:12:CD:0E:B3:60:44:40:5D:FB:EC
            X509v3 Authority Key Identifier: 
                keyid:2E:9F:9F:AF:EF:0F:6A:E4:8B:E7:7B:9E:0C:DD:F9:21:87:65:5D:0F

            X509v3 Subject Alternative Name: 
                DNS:console.openmtc.org
    Signature Algorithm: sha256WithRSAEncryption
         93:86:99:1c:63:f2:e5:61:42:c3:4c:da:6d:d8:1f:0f:8b:7c:
         e7:6d:d9:fc:e5:8b:61:18:41:36:04:69:55:6c:2f:ba:62:c7:
         93:f7:63:e3:b9:0e:6e:72:70:a1:53:c2:83:f6:c7:d0:5a:80:
         4a:8d:2a:32:74:ce:a1:06:fe:f4:d0:3e:99:d1:51:7c:81:97:
         80:43:b6:dd:93:d4:b7:78:7b:6f:3a:14:de:22:03:3c:e9:ef:
         b1:dd:35:f8:69:29:c5:2a:2b:19:c2:d7:d2:7a:a0:4f:73:fe:
         1a:59:f9:d6:58:73:51:6e:a9:d7:e8:f1:98:8e:d2:e2:fb:34:
         83:46:af:e8:24:95:11:c3:87:cf:d3:d2:62:0a:28:15:9b:b9:
         29:a1:9f:2f:ea:af:3f:59:57:f3:37:6b:05:76:01:b9:2e:9f:
         bc:b4:53:47:0f:01:d0:9f:d8:6b:a8:d0:c8:76:59:01:77:ec:
         e2:23:ec:8b:fb:ae:5d:f8:99:92:49:b2:05:81:46:f5:9e:6e:
         3a:cc:2f:ae:52:63:31:ec:1a:10:29:34:95:ef:11:20:4b:74:
         c6:fb:b5:b1:b7:78:37:04:cc:32:ed:b5:15:99:04:06:e6:d9:
         f8:a9:c0:0d:a5:b2:61:6e:e1:2f:69:2a:d5:25:3d:b6:12:12:
         0b:3a:84:92
-----BEGIN CERTIFICATE-----
MIIEGTCCAwGgAwIBAgIBBTANBgkqhkiG9w0BAQsFADB6MRMwEQYKCZImiZPyLGQB
GRYDb3JnMRcwFQYKCZImiZPyLGQBGRYHb3Blbm10YzEQMA4GA1UECgwHT3Blbk1U
QzEbMBkGA1UECwwST3Blbk1UQyBTaWduaW5nIENBMRswGQYDVQQDDBJPcGVuTVRD
IFNpZ25pbmcgQ0EwHhcNMTkwNDEzMTgxNjMwWhcNMjEwNDEyMTgxNjMwWjCBhTET
MBEGCgmSJomT8ixkARkWA29yZzEXMBUGCgmSJomT8ixkARkWB29wZW5tdGMxFzAV
BgoJkiaJk/IsZAEZFgdvcGVubXRjMRAwDgYDVQQKDAdPcGVuTVRDMQwwCgYDVQQL
DANJb1QxHDAaBgNVBAMME2NvbnNvbGUub3Blbm10Yy5vcmcwggEiMA0GCSqGSIb3
DQEBAQUAA4IBDwAwggEKAoIBAQDFIqVweiDbRgRXw8Dc8+ndm4xDf2mw4u2BpZlu
gAxYsdykwu63DfWohfHBhVWBBxGo1Xvbhf2FyxY+F1RxXjfWPW5WbpOOffVJEq+4
MkY8eb4kNYtwwcZhtpcYdjtM9ESqpbK6/uU74Yny/bX05QfUa5tQnWCxic2WsFar
LmOBXk9to4djQHM9cGSOjaFVQG1pWQT5xzOy82ysp7X43kXXSDfSMAxqLnU/1L5Q
095E2Dg8fh83xXY2K+hasJYbBZ4ksE2iJUPPSuQresF2QwjCusO5CadCSTmkPcv3
kWlpF8cZCi4Mp+8gelF/gT0IzQYZmiKhf01d5OvTCs/b46GpAgMBAAGjgZ0wgZow
DgYDVR0PAQH/BAQDAgWgMAkGA1UdEwQCMAAwHQYDVR0lBBYwFAYIKwYBBQUHAwEG
CCsGAQUFBwMCMB0GA1UdDgQWBBS8gDhb+KaE6JkZEs0Os2BEQF377DAfBgNVHSME
GDAWgBQun5+v7w9q5Ivne54M3fkhh2VdDzAeBgNVHREEFzAVghNjb25zb2xlLm9w
ZW5tdGMub3JnMA0GCSqGSIb3DQEBCwUAA4IBAQCThpkcY/LlYULDTNpt2B8Pi3zn
bdn85YthGEE2BGlVbC+6YseT92PjuQ5ucnChU8KD9sfQWoBKjSoydM6hBv700D6Z
0VF8gZeAQ7bdk9S3eHtvOhTeIgM86e+x3TX4aSnFKisZwtfSeqBPc/4aWfnWWHNR
bqnX6PGYjtLi+zSDRq/oJJURw4fP09JiCigVm7kpoZ8v6q8/WVfzN2sFdgG5Lp+8
tFNHDwHQn9hrqNDIdlkBd+ziI+yL+65d+JmSSbIFgUb1nm46zC+uUmMx7BoQKTSV
7xEgS3TG+7Wxt3g3BMwy7bUVmQQG5tn4qcANpbJhbuEvaSrVJT22EhILOoSS
-----END CERTIFICATE-----
