Certificate:
    Data:
        Version: 3 (0x2)
        Serial Number: 18 (0x12)
    Signature Algorithm: sha256WithRSAEncryption
        Issuer: DC=org, DC=openmtc, O=OpenMTC, OU=OpenMTC Signing CA, CN=OpenMTC Signing CA
        Validity
            Not Before: Jun  8 02:12:06 2019 GMT
            Not After : Jun  7 02:12:06 2021 GMT
        Subject: DC=org, DC=openmtc, DC=openmtc, O=OpenMTC, OU=IoT, CN=console.openmtc.org
        Subject Public Key Info:
            Public Key Algorithm: rsaEncryption
                Public-Key: (2048 bit)
                Modulus:
                    00:9a:84:2f:06:4c:92:72:3a:60:e3:19:d8:11:82:
                    f7:c5:91:d9:05:ec:78:48:c3:1e:fa:23:ae:b3:b5:
                    1e:ac:eb:65:25:b7:09:6a:53:66:bd:37:d4:c0:8c:
                    23:ad:ea:07:26:3b:01:76:63:35:4c:47:da:56:0e:
                    be:ad:c3:01:9d:d2:32:12:b4:01:37:c1:c6:24:02:
                    f4:40:03:59:16:6d:cb:27:c4:21:75:f2:d7:04:c0:
                    9d:3d:54:05:60:c4:ac:75:f3:e0:76:1d:18:1e:b8:
                    f2:00:33:e7:e3:60:1d:c5:fc:5a:eb:0a:9f:2f:41:
                    0b:28:5d:01:27:52:85:86:74:c4:a7:29:72:0c:cc:
                    98:80:b3:10:95:cd:02:57:fe:6a:61:26:8d:47:20:
                    4f:4e:f5:fa:99:05:8d:eb:c8:60:9a:ca:1b:d1:02:
                    50:bf:e5:79:72:1d:25:65:e2:3a:a7:0d:df:b1:81:
                    10:92:fa:af:56:b5:97:03:07:db:0c:fd:ba:b7:50:
                    83:ac:4c:88:dc:9d:89:44:2e:5b:f2:a2:38:75:a9:
                    b4:a3:d4:f8:4d:97:e2:c6:2d:c5:b8:39:f9:56:83:
                    f0:92:eb:1a:5e:f3:33:b1:29:7b:1f:40:b5:19:b4:
                    4d:c6:4b:e1:6a:a7:71:98:b2:d0:47:cc:64:2b:b3:
                    19:eb
                Exponent: 65537 (0x10001)
        X509v3 extensions:
            X509v3 Key Usage: critical
                Digital Signature, Key Encipherment
            X509v3 Basic Constraints: 
                CA:FALSE
            X509v3 Extended Key Usage: 
                TLS Web Server Authentication, TLS Web Client Authentication
            X509v3 Subject Key Identifier: 
                F0:61:CA:61:F4:A1:04:1B:34:06:EC:15:5B:B7:34:A3:C7:9C:87:BB
            X509v3 Authority Key Identifier: 
                keyid:2E:9F:9F:AF:EF:0F:6A:E4:8B:E7:7B:9E:0C:DD:F9:21:87:65:5D:0F

            X509v3 Subject Alternative Name: 
                DNS:console.openmtc.org, URI://console.openmtc.org
    Signature Algorithm: sha256WithRSAEncryption
         8d:29:8e:b0:e2:d1:35:cf:91:96:a0:24:75:12:23:1b:ca:28:
         a6:b0:54:13:35:f2:58:e5:45:93:c9:61:29:75:89:aa:c9:c0:
         09:c7:fc:72:0e:0a:c3:8d:e7:f9:80:ab:5e:e8:84:48:3a:4c:
         0f:e4:53:4b:a0:ee:df:86:62:0a:d2:57:56:0a:3e:13:d9:2f:
         74:18:15:da:09:b2:b4:0c:f7:4d:86:b0:c5:23:e5:45:21:45:
         27:0b:3d:81:b5:fd:49:07:6f:14:4f:65:31:b6:77:d8:29:d2:
         32:7d:4d:43:f4:0e:9e:67:45:4c:fa:29:57:fc:7f:f6:83:bd:
         1c:7e:75:65:af:7e:4c:0c:3f:f7:6d:78:d7:00:58:75:cd:1a:
         ec:09:65:b6:ce:71:59:a6:36:eb:8c:dd:0a:3c:a4:21:00:0a:
         28:cf:1f:fd:83:69:16:6c:e9:bf:57:56:51:98:45:32:23:d2:
         ee:38:09:7d:c8:db:b3:38:1e:a4:0f:b3:6a:c3:55:5b:79:b3:
         9b:cf:90:6a:28:f0:ca:ef:86:27:3b:e0:40:44:97:99:f5:98:
         b0:11:f6:f4:7c:e4:ff:05:d7:50:a2:98:0c:ba:5b:11:4c:34:
         20:31:e7:3e:e0:64:db:1b:7e:cb:d9:44:b9:4b:e7:67:5f:80:
         b8:28:19:85
-----BEGIN CERTIFICATE-----
MIIEMDCCAxigAwIBAgIBEjANBgkqhkiG9w0BAQsFADB6MRMwEQYKCZImiZPyLGQB
GRYDb3JnMRcwFQYKCZImiZPyLGQBGRYHb3Blbm10YzEQMA4GA1UECgwHT3Blbk1U
QzEbMBkGA1UECwwST3Blbk1UQyBTaWduaW5nIENBMRswGQYDVQQDDBJPcGVuTVRD
IFNpZ25pbmcgQ0EwHhcNMTkwNjA4MDIxMjA2WhcNMjEwNjA3MDIxMjA2WjCBhTET
MBEGCgmSJomT8ixkARkWA29yZzEXMBUGCgmSJomT8ixkARkWB29wZW5tdGMxFzAV
BgoJkiaJk/IsZAEZFgdvcGVubXRjMRAwDgYDVQQKDAdPcGVuTVRDMQwwCgYDVQQL
DANJb1QxHDAaBgNVBAMME2NvbnNvbGUub3Blbm10Yy5vcmcwggEiMA0GCSqGSIb3
DQEBAQUAA4IBDwAwggEKAoIBAQCahC8GTJJyOmDjGdgRgvfFkdkF7HhIwx76I66z
tR6s62UltwlqU2a9N9TAjCOt6gcmOwF2YzVMR9pWDr6twwGd0jIStAE3wcYkAvRA
A1kWbcsnxCF18tcEwJ09VAVgxKx18+B2HRgeuPIAM+fjYB3F/FrrCp8vQQsoXQEn
UoWGdMSnKXIMzJiAsxCVzQJX/mphJo1HIE9O9fqZBY3ryGCayhvRAlC/5XlyHSVl
4jqnDd+xgRCS+q9WtZcDB9sM/bq3UIOsTIjcnYlELlvyojh1qbSj1PhNl+LGLcW4
OflWg/CS6xpe8zOxKXsfQLUZtE3GS+Fqp3GYstBHzGQrsxnrAgMBAAGjgbQwgbEw
DgYDVR0PAQH/BAQDAgWgMAkGA1UdEwQCMAAwHQYDVR0lBBYwFAYIKwYBBQUHAwEG
CCsGAQUFBwMCMB0GA1UdDgQWBBTwYcph9KEEGzQG7BVbtzSjx5yHuzAfBgNVHSME
GDAWgBQun5+v7w9q5Ivne54M3fkhh2VdDzA1BgNVHREELjAsghNjb25zb2xlLm9w
ZW5tdGMub3JnhhUvL2NvbnNvbGUub3Blbm10Yy5vcmcwDQYJKoZIhvcNAQELBQAD
ggEBAI0pjrDi0TXPkZagJHUSIxvKKKawVBM18ljlRZPJYSl1iarJwAnH/HIOCsON
5/mAq17ohEg6TA/kU0ug7t+GYgrSV1YKPhPZL3QYFdoJsrQM902GsMUj5UUhRScL
PYG1/UkHbxRPZTG2d9gp0jJ9TUP0Dp5nRUz6KVf8f/aDvRx+dWWvfkwMP/dteNcA
WHXNGuwJZbbOcVmmNuuM3Qo8pCEACijPH/2DaRZs6b9XVlGYRTIj0u44CX3I27M4
HqQPs2rDVVt5s5vPkGoo8Mrvhic74EBEl5n1mLAR9vR85P8F11CimAy6WxFMNCAx
5z7gZNsbfsvZRLlL52dfgLgoGYU=
-----END CERTIFICATE-----
